; Function Attrs: nounwind sspstrong uwtable
define internal i64 @env_to_h(i64 %0) #0 {
  %2 = tail call fastcc i64 @env_to_hash()
  %3 = tail call i32 @rb_block_given_p() #28
  %.not = icmp eq i32 %3, 0
  br i1 %.not, label %30, label %4

4:                                                ; preds = %1
  %5 = inttoptr i64 %2 to ptr
  %6 = load i64, ptr %5, align 8, !tbaa !11
  %7 = and i64 %6, 32768
  %.not.i.i.i = icmp eq i64 %7, 0
  br i1 %.not.i.i.i, label %8, label %11

8:                                                ; preds = %4
  %9 = lshr i64 %6, 16
  %10 = and i64 %9, 15
  br label %RHASH_SIZE.exit.i

11:                                               ; preds = %4
  %12 = add i64 %2, 24
  %13 = inttoptr i64 %12 to ptr
  %14 = getelementptr inbounds nuw i8, ptr %13, i64 16
  %15 = load i64, ptr %14, align 8, !tbaa !49
  br label %RHASH_SIZE.exit.i

RHASH_SIZE.exit.i:                                ; preds = %11, %8
  %.0.i.i = phi i64 [ %10, %8 ], [ %15, %11 ]
  %16 = icmp ugt i64 %.0.i.i, 8
  %17 = load i64, ptr @rb_cHash, align 8, !tbaa !7
  %18 = select i1 %16, i64 80, i64 160
  %19 = tail call align 8 ptr @llvm.threadlocal.address.p0(ptr align 8 @ruby_current_ec)
  %20 = load ptr, ptr %19, align 8, !tbaa !24
  %21 = tail call i64 @rb_wb_protected_newobj_of(ptr noundef %20, i64 noundef %17, i64 noundef 8, i64 noundef %18) #28
  %22 = inttoptr i64 %21 to ptr
  %23 = getelementptr inbounds nuw i8, ptr %22, i64 16
  store i64 4, ptr %23, align 8, !tbaa !7
  br i1 %16, label %24, label %rb_hash_to_h_block.exit

24:                                               ; preds = %RHASH_SIZE.exit.i
  %25 = add i64 %21, 24
  %26 = inttoptr i64 %25 to ptr
  %27 = tail call ptr @rb_st_init_existing_table_with_size(ptr noundef nonnull %26, ptr noundef nonnull @objhash, i64 noundef %.0.i.i) #28
  %28 = load i64, ptr %22, align 8, !tbaa !11
  %29 = or i64 %28, 32768
  store i64 %29, ptr %22, align 8, !tbaa !11
  br label %rb_hash_to_h_block.exit

rb_hash_to_h_block.exit:                          ; preds = %RHASH_SIZE.exit.i, %24
  tail call void @rb_hash_foreach(i64 noundef %2, ptr noundef @to_h_i, i64 noundef %21)
  br label %30

30:                                               ; preds = %rb_hash_to_h_block.exit, %1
  %.0 = phi i64 [ %21, %rb_hash_to_h_block.exit ], [ %2, %1 ]
  ret i64 %.0
}